target datalayout = "e-m:e-p270:32:32-p271:32:32-p272:64:64-i64:64-i128:128-f80:128-n8:16:32:64-S128"
target triple = "x86_64-pc-linux-gnu"

%struct.nth_line_cb = type { ptr, i64, ptr }
%struct.object_id = type { [32 x i8], i32 }
%struct.diff_filespec = type { %struct.object_id, ptr, ptr, ptr, i64, i32, i32, i16, i16, ptr }

; Function Attrs: nounwind uwtable
define internal ptr @nth_line(ptr noundef %0, i64 noundef %1) #0 {
  %3 = alloca ptr, align 8
  %4 = alloca ptr, align 8
  %5 = alloca i64, align 8
  %6 = alloca ptr, align 8
  %7 = alloca i32, align 4
  store ptr %0, ptr %4, align 8, !tbaa !23
  store i64 %1, ptr %5, align 8, !tbaa !9
  call void @llvm.lifetime.start.p0(i64 8, ptr %6) #9
  %8 = load ptr, ptr %4, align 8, !tbaa !23
  store ptr %8, ptr %6, align 8, !tbaa !183
  %9 = load i64, ptr %5, align 8, !tbaa !9
  %10 = icmp eq i64 %9, 0
  br i1 %10, label %11, label %17

11:                                               ; preds = %2
  %12 = load ptr, ptr %6, align 8, !tbaa !183
  %13 = getelementptr inbounds nuw %struct.nth_line_cb, ptr %12, i32 0, i32 0
  %14 = load ptr, ptr %13, align 8, !tbaa !121
  %15 = getelementptr inbounds nuw %struct.diff_filespec, ptr %14, i32 0, i32 2
  %16 = load ptr, ptr %15, align 8, !tbaa !179
  store ptr %16, ptr %3, align 8
  store i32 1, ptr %7, align 4
  br label %31

17:                                               ; preds = %2
  %18 = load ptr, ptr %6, align 8, !tbaa !183
  %19 = getelementptr inbounds nuw %struct.nth_line_cb, ptr %18, i32 0, i32 0
  %20 = load ptr, ptr %19, align 8, !tbaa !121
  %21 = getelementptr inbounds nuw %struct.diff_filespec, ptr %20, i32 0, i32 2
  %22 = load ptr, ptr %21, align 8, !tbaa !179
  %23 = load ptr, ptr %6, align 8, !tbaa !183
  %24 = getelementptr inbounds nuw %struct.nth_line_cb, ptr %23, i32 0, i32 2
  %25 = load ptr, ptr %24, align 8, !tbaa !124
  %26 = load i64, ptr %5, align 8, !tbaa !9
  %27 = getelementptr inbounds i64, ptr %25, i64 %26
  %28 = load i64, ptr %27, align 8, !tbaa !9
  %29 = getelementptr inbounds nuw i8, ptr %22, i64 %28
  %30 = getelementptr inbounds i8, ptr %29, i64 1
  store ptr %30, ptr %3, align 8
  store i32 1, ptr %7, align 4
  br label %31

31:                                               ; preds = %17, %11
  call void @llvm.lifetime.end.p0(i64 8, ptr %6) #9
  %32 = load ptr, ptr %3, align 8
  ret ptr %32
}