; Function Attrs: mustprogress nofree norecurse nosync nounwind willreturn memory(read, inaccessiblemem: none) uwtable
define internal ptr @nth_line(ptr noundef readonly captures(none) %0, i64 noundef %1) #11 {
  %3 = icmp eq i64 %1, 0
  %4 = load ptr, ptr %0, align 8, !tbaa !108
  %5 = getelementptr inbounds nuw i8, ptr %4, i64 48
  %6 = load ptr, ptr %5, align 8, !tbaa !141
  br i1 %3, label %14, label %7

7:                                                ; preds = %2
  %8 = getelementptr inbounds nuw i8, ptr %0, i64 16
  %9 = load ptr, ptr %8, align 8, !tbaa !112
  %10 = getelementptr inbounds i64, ptr %9, i64 %1
  %11 = load i64, ptr %10, align 8, !tbaa !76
  %12 = getelementptr inbounds nuw i8, ptr %6, i64 %11
  %13 = getelementptr inbounds nuw i8, ptr %12, i64 1
  br label %14

14:                                               ; preds = %2, %7
  %.0 = phi ptr [ %13, %7 ], [ %6, %2 ]
  ret ptr %.0
}